target datalayout = "e-m:e-p270:32:32-p271:32:32-p272:64:64-i64:64-i128:128-f80:128-n8:16:32:64-S128"
target triple = "x86_64-pc-linux-gnu"

%struct.VuDevIface = type { ptr, ptr, ptr, ptr, ptr, ptr, ptr, ptr, ptr, ptr }
%struct.VuDev = type { i32, i32, ptr, ptr, %struct.VuDevInflightInfo, i32, %union.pthread_mutex_t, i32, i64, ptr, i64, i64, i8, i16, ptr, ptr, ptr, ptr, ptr, i32, i8 }
%struct.VuDevInflightInfo = type { i32, ptr, i64 }
%union.pthread_mutex_t = type { %struct.__pthread_mutex_s }
%struct.__pthread_mutex_s = type { i32, i32, i32, i32, i32, i16, i16, %struct.__pthread_internal_list }
%struct.__pthread_internal_list = type { ptr, ptr }

@iface = internal constant %struct.VuDevIface zeroinitializer, align 8
@.str = private unnamed_addr constant [11 x i8] c"rc == true\00", align 1
@.str.1 = private unnamed_addr constant [46 x i8] c"../qemu/subprojects/libvhost-user/link-test.c\00", align 1
@__PRETTY_FUNCTION__.main = private unnamed_addr constant [29 x i8] c"int main(int, const char **)\00", align 1

; Function Attrs: nounwind uwtable
define dso_local i32 @main(i32 noundef %0, ptr noundef %1) #0 {
  %3 = alloca i32, align 4
  %4 = alloca i32, align 4
  %5 = alloca ptr, align 8
  %6 = alloca i8, align 1
  %7 = alloca i16, align 2
  %8 = alloca i32, align 4
  %9 = alloca %struct.VuDev, align 8
  store i32 0, ptr %3, align 4
  store i32 %0, ptr %4, align 4
  store ptr %1, ptr %5, align 8
  call void @llvm.lifetime.start.p0(i64 1, ptr %6) #6
  store i8 0, ptr %6, align 1, !annotation !4
  call void @llvm.lifetime.start.p0(i64 2, ptr %7) #6
  store i16 2, ptr %7, align 2
  call void @llvm.lifetime.start.p0(i64 4, ptr %8) #6
  store i32 0, ptr %8, align 4
  call void @llvm.lifetime.start.p0(i64 192, ptr %9) #6
  call void @llvm.memset.p0.i64(ptr align 8 %9, i8 0, i64 192, i1 false)
  %10 = load i16, ptr %7, align 2
  %11 = load i32, ptr %8, align 4
  %12 = call zeroext i1 @vu_init(ptr noundef %9, i16 noundef zeroext %10, i32 noundef %11, ptr noundef @panic, ptr noundef null, ptr noundef @set_watch, ptr noundef @remove_watch, ptr noundef @iface)
  %13 = zext i1 %12 to i8
  store i8 %13, ptr %6, align 1
  %14 = load i8, ptr %6, align 1, !range !5, !noundef !6
  %15 = trunc i8 %14 to i1
  %16 = zext i1 %15 to i32
  %17 = icmp eq i32 %16, 1
  br i1 %17, label %18, label %19

18:                                               ; preds = %2
  br label %20

19:                                               ; preds = %2
  call void @__assert_fail(ptr noundef @.str, ptr noundef @.str.1, i32 noundef 41, ptr noundef @__PRETTY_FUNCTION__.main) #7
  unreachable

20:                                               ; preds = %18
  call void @vu_deinit(ptr noundef %9)
  call void @llvm.lifetime.end.p0(i64 192, ptr %9) #6
  call void @llvm.lifetime.end.p0(i64 4, ptr %8) #6
  call void @llvm.lifetime.end.p0(i64 2, ptr %7) #6
  call void @llvm.lifetime.end.p0(i64 1, ptr %6) #6
  ret i32 0
}

; Function Attrs: nocallback nofree nosync nounwind willreturn memory(argmem: readwrite)
declare void @llvm.lifetime.start.p0(i64 immarg, ptr captures(none)) #1

; Function Attrs: nocallback nofree nounwind willreturn memory(argmem: write)
declare void @llvm.memset.p0.i64(ptr writeonly captures(none), i8, i64, i1 immarg) #2

declare zeroext i1 @vu_init(ptr noundef, i16 noundef zeroext, i32 noundef, ptr noundef, ptr noundef, ptr noundef, ptr noundef, ptr noundef) #3

; Function Attrs: nounwind uwtable
define internal void @panic(ptr noundef %0, ptr noundef %1) #4 {
  %3 = alloca ptr, align 8
  %4 = alloca ptr, align 8
  store ptr %0, ptr %3, align 8
  store ptr %1, ptr %4, align 8
  call void @abort() #7
  unreachable
}

; Function Attrs: nounwind uwtable
define internal void @set_watch(ptr noundef %0, i32 noundef %1, i32 noundef %2, ptr noundef %3, ptr noundef %4) #4 {
  %6 = alloca ptr, align 8
  %7 = alloca i32, align 4
  %8 = alloca i32, align 4
  %9 = alloca ptr, align 8
  %10 = alloca ptr, align 8
  store ptr %0, ptr %6, align 8
  store i32 %1, ptr %7, align 4
  store i32 %2, ptr %8, align 4
  store ptr %3, ptr %9, align 8
  store ptr %4, ptr %10, align 8
  call void @abort() #7
  unreachable
}

; Function Attrs: nounwind uwtable
define internal void @remove_watch(ptr noundef %0, i32 noundef %1) #4 {
  %3 = alloca ptr, align 8
  %4 = alloca i32, align 4
  store ptr %0, ptr %3, align 8
  store i32 %1, ptr %4, align 4
  call void @abort() #7
  unreachable
}

; Function Attrs: noreturn nounwind
declare void @__assert_fail(ptr noundef, ptr noundef, i32 noundef, ptr noundef) #5

declare void @vu_deinit(ptr noundef) #3

; Function Attrs: nocallback nofree nosync nounwind willreturn memory(argmem: readwrite)
declare void @llvm.lifetime.end.p0(i64 immarg, ptr captures(none)) #1

; Function Attrs: noreturn nounwind
declare void @abort() #5


!llvm.module.flags = !{!0, !1, !2, !3}

!0 = !{i32 1, !"wchar_size", i32 4}
!1 = !{i32 8, !"PIC Level", i32 2}
!2 = !{i32 7, !"PIE Level", i32 2}
!3 = !{i32 7, !"uwtable", i32 2}
!4 = !{!"auto-init"}
!5 = !{i8 0, i8 2}
!6 = !{}
