; ModuleID = 'bench/qemu/original/link-test.ll'
source_filename = "bench/qemu/original/link-test.ll"
target datalayout = "e-m:e-p270:32:32-p271:32:32-p272:64:64-i64:64-i128:128-f80:128-n8:16:32:64-S128"
target triple = "x86_64-pc-linux-gnu"

%struct.VuDevIface = type { ptr, ptr, ptr, ptr, ptr, ptr, ptr, ptr, ptr, ptr }
%struct.VuDev = type { i32, i32, ptr, ptr, %struct.VuDevInflightInfo, i32, %union.pthread_mutex_t, i32, i64, ptr, i64, i64, i8, i16, ptr, ptr, ptr, ptr, ptr, i32, i8 }
%struct.VuDevInflightInfo = type { i32, ptr, i64 }
%union.pthread_mutex_t = type { %struct.__pthread_mutex_s }
%struct.__pthread_mutex_s = type { i32, i32, i32, i32, i32, i16, i16, %struct.__pthread_internal_list }
%struct.__pthread_internal_list = type { ptr, ptr }

@iface = internal constant %struct.VuDevIface zeroinitializer, align 8
@.str = private unnamed_addr constant [11 x i8] c"rc == true\00", align 1
@.str.1 = private unnamed_addr constant [46 x i8] c"../qemu/subprojects/libvhost-user/link-test.c\00", align 1
@__PRETTY_FUNCTION__.main = private unnamed_addr constant [29 x i8] c"int main(int, const char **)\00", align 1

; Function Attrs: nounwind uwtable
define dso_local noundef i32 @main(i32 noundef %0, ptr noundef readnone captures(none) %1) local_unnamed_addr #0 {
  %3 = alloca %struct.VuDev, align 8
  call void @llvm.lifetime.start.p0(i64 192, ptr nonnull %3) #7
  call void @llvm.memset.p0.i64(ptr noundef nonnull align 8 dereferenceable(192) %3, i8 0, i64 192, i1 false)
  %4 = call zeroext i1 @vu_init(ptr noundef nonnull %3, i16 noundef zeroext 2, i32 noundef 0, ptr noundef nonnull @panic, ptr noundef null, ptr noundef nonnull @set_watch, ptr noundef nonnull @remove_watch, ptr noundef nonnull @iface) #7
  br i1 %4, label %6, label %5

5:                                                ; preds = %2
  call void @__assert_fail(ptr noundef nonnull @.str, ptr noundef nonnull @.str.1, i32 noundef 41, ptr noundef nonnull @__PRETTY_FUNCTION__.main) #8
  unreachable

6:                                                ; preds = %2
  call void @vu_deinit(ptr noundef nonnull %3) #7
  call void @llvm.lifetime.end.p0(i64 192, ptr nonnull %3) #7
  ret i32 0
}

; Function Attrs: mustprogress nocallback nofree nosync nounwind willreturn memory(argmem: readwrite)
declare void @llvm.lifetime.start.p0(i64 immarg, ptr captures(none)) #1

; Function Attrs: mustprogress nocallback nofree nounwind willreturn memory(argmem: write)
declare void @llvm.memset.p0.i64(ptr writeonly captures(none), i8, i64, i1 immarg) #2

declare zeroext i1 @vu_init(ptr noundef, i16 noundef zeroext, i32 noundef, ptr noundef, ptr noundef, ptr noundef, ptr noundef, ptr noundef) local_unnamed_addr #3

; Function Attrs: cold nofree noreturn nounwind uwtable
define internal void @panic(ptr readnone captures(none) %0, ptr readnone captures(none) %1) #4 {
  tail call void @abort() #8
  unreachable
}

; Function Attrs: cold nofree noreturn nounwind uwtable
define internal void @set_watch(ptr readnone captures(none) %0, i32 %1, i32 %2, ptr readnone captures(none) %3, ptr readnone captures(none) %4) #4 {
  tail call void @abort() #8
  unreachable
}

; Function Attrs: cold nofree noreturn nounwind uwtable
define internal void @remove_watch(ptr readnone captures(none) %0, i32 %1) #4 {
  tail call void @abort() #8
  unreachable
}

; Function Attrs: noreturn nounwind
declare void @__assert_fail(ptr noundef, ptr noundef, i32 noundef, ptr noundef) local_unnamed_addr #5

declare void @vu_deinit(ptr noundef) local_unnamed_addr #3

; Function Attrs: mustprogress nocallback nofree nosync nounwind willreturn memory(argmem: readwrite)
declare void @llvm.lifetime.end.p0(i64 immarg, ptr captures(none)) #1

; Function Attrs: cold nofree noreturn nounwind
declare void @abort() local_unnamed_addr #6


!llvm.module.flags = !{!0, !1, !2, !3}

!0 = !{i32 1, !"wchar_size", i32 4}
!1 = !{i32 8, !"PIC Level", i32 2}
!2 = !{i32 7, !"PIE Level", i32 2}
!3 = !{i32 7, !"uwtable", i32 2}
